target datalayout = "e-m:e-p270:32:32-p271:32:32-p272:64:64-i64:64-i128:128-f80:128-n8:16:32:64-S128"
target triple = "x86_64-unknown-linux-gnu"

@.str = private unnamed_addr constant [22 x i8] c"start >= 0 && nr >= 0\00", align 1
@.str.1 = private unnamed_addr constant [22 x i8] c"../qemu/util/bitmap.c\00", align 1
@__PRETTY_FUNCTION__.bitmap_set_atomic = private unnamed_addr constant [52 x i8] c"void bitmap_set_atomic(unsigned long *, long, long)\00", align 1

; Function Attrs: nounwind sspstrong uwtable
define dso_local void @bitmap_set_atomic(ptr noundef %map, i64 noundef %start, i64 noundef %nr) #0 {
entry:
  %map.addr = alloca ptr, align 8
  %start.addr = alloca i64, align 8
  %nr.addr = alloca i64, align 8
  %p = alloca ptr, align 8
  %size = alloca i64, align 8
  %bits_to_set = alloca i32, align 4
  %mask_to_set = alloca i64, align 8
  %.atomictmp = alloca i64, align 8
  %atomic-temp = alloca i64, align 8
  %.atomictmp25 = alloca i64, align 8
  %atomic-temp26 = alloca i64, align 8
  store ptr %map, ptr %map.addr, align 8
  store i64 %start, ptr %start.addr, align 8
  store i64 %nr, ptr %nr.addr, align 8
  %0 = load ptr, ptr %map.addr, align 8
  %1 = load i64, ptr %start.addr, align 8
  %div = udiv i64 %1, 64
  %add.ptr = getelementptr i64, ptr %0, i64 %div
  store ptr %add.ptr, ptr %p, align 8
  %2 = load i64, ptr %start.addr, align 8
  %3 = load i64, ptr %nr.addr, align 8
  %add = add i64 %2, %3
  store i64 %add, ptr %size, align 8
  %4 = load i64, ptr %start.addr, align 8
  %rem = urem i64 %4, 64
  %sub = sub i64 64, %rem
  %conv = trunc i64 %sub to i32
  store i32 %conv, ptr %bits_to_set, align 4
  %5 = load i64, ptr %start.addr, align 8
  %and = and i64 %5, 63
  %shl = shl i64 -1, %and
  store i64 %shl, ptr %mask_to_set, align 8
  %6 = load i64, ptr %start.addr, align 8
  %cmp = icmp sge i64 %6, 0
  br i1 %cmp, label %land.lhs.true, label %if.else

land.lhs.true:                                    ; preds = %entry
  %7 = load i64, ptr %nr.addr, align 8
  %cmp2 = icmp sge i64 %7, 0
  br i1 %cmp2, label %if.then, label %if.else

if.then:                                          ; preds = %land.lhs.true
  br label %if.end

if.else:                                          ; preds = %land.lhs.true, %entry
  call void @__assert_fail(ptr noundef @.str, ptr noundef @.str.1, i32 noundef 189, ptr noundef @__PRETTY_FUNCTION__.bitmap_set_atomic) #6
  unreachable

if.end:                                           ; preds = %if.then
  %8 = load i64, ptr %nr.addr, align 8
  %9 = load i32, ptr %bits_to_set, align 4
  %conv4 = sext i32 %9 to i64
  %sub5 = sub i64 %8, %conv4
  %cmp6 = icmp sgt i64 %sub5, 0
  br i1 %cmp6, label %if.then8, label %if.end11

if.then8:                                         ; preds = %if.end
  %10 = load ptr, ptr %p, align 8
  %11 = load i64, ptr %mask_to_set, align 8
  store i64 %11, ptr %.atomictmp, align 8
  %12 = load i64, ptr %.atomictmp, align 8
  %13 = atomicrmw or ptr %10, i64 %12 seq_cst, align 8
  store i64 %13, ptr %atomic-temp, align 8
  %14 = load i32, ptr %bits_to_set, align 4
  %conv9 = sext i32 %14 to i64
  %15 = load i64, ptr %nr.addr, align 8
  %sub10 = sub i64 %15, %conv9
  store i64 %sub10, ptr %nr.addr, align 8
  store i32 64, ptr %bits_to_set, align 4
  store i64 -1, ptr %mask_to_set, align 8
  %16 = load ptr, ptr %p, align 8
  %incdec.ptr = getelementptr i64, ptr %16, i32 1
  store ptr %incdec.ptr, ptr %p, align 8
  br label %if.end11

if.end11:                                         ; preds = %if.then8, %if.end
  %17 = load i32, ptr %bits_to_set, align 4
  %conv12 = sext i32 %17 to i64
  %cmp13 = icmp eq i64 %conv12, 64
  br i1 %cmp13, label %if.then15, label %if.end20

if.then15:                                        ; preds = %if.end11
  br label %while.cond

while.cond:                                       ; preds = %while.body, %if.then15
  %18 = load i64, ptr %nr.addr, align 8
  %cmp16 = icmp uge i64 %18, 64
  br i1 %cmp16, label %while.body, label %while.end

while.body:                                       ; preds = %while.cond
  %19 = load ptr, ptr %p, align 8
  store i64 -1, ptr %19, align 8
  %20 = load i64, ptr %nr.addr, align 8
  %sub18 = sub i64 %20, 64
  store i64 %sub18, ptr %nr.addr, align 8
  %21 = load ptr, ptr %p, align 8
  %incdec.ptr19 = getelementptr i64, ptr %21, i32 1
  store ptr %incdec.ptr19, ptr %p, align 8
  br label %while.cond, !llvm.loop !15

while.end:                                        ; preds = %while.cond
  br label %if.end20

if.end20:                                         ; preds = %while.end, %if.end11
  %22 = load i64, ptr %nr.addr, align 8
  %tobool = icmp ne i64 %22, 0
  br i1 %tobool, label %if.then21, label %if.else27

if.then21:                                        ; preds = %if.end20
  %23 = load i64, ptr %size, align 8
  %sub22 = sub i64 0, %23
  %and23 = and i64 %sub22, 63
  %shr = lshr i64 -1, %and23
  %24 = load i64, ptr %mask_to_set, align 8
  %and24 = and i64 %24, %shr
  store i64 %and24, ptr %mask_to_set, align 8
  %25 = load ptr, ptr %p, align 8
  %26 = load i64, ptr %mask_to_set, align 8
  store i64 %26, ptr %.atomictmp25, align 8
  %27 = load i64, ptr %.atomictmp25, align 8
  %28 = atomicrmw or ptr %25, i64 %27 seq_cst, align 8
  store i64 %28, ptr %atomic-temp26, align 8
  br label %if.end28

if.else27:                                        ; preds = %if.end20
  call void asm sideeffect "", "~{memory},~{dirflag},~{fpsr},~{flags}"() #7, !srcloc !16
  fence seq_cst
  br label %if.end28

if.end28:                                         ; preds = %if.else27, %if.then21
  ret void
}