; Function Attrs: nounwind sspstrong uwtable
define dso_local void @bitmap_set_atomic(ptr noundef captures(none) %map, i64 noundef %start, i64 noundef %nr) local_unnamed_addr #2 {
entry:
  %div21 = lshr i64 %start, 6
  %add.ptr = getelementptr i64, ptr %map, i64 %div21
  %add = add i64 %start, %nr
  %and = and i64 %start, 63
  %shl = shl nsw i64 -1, %and
  %0 = or i64 %nr, %start
  %or.cond = icmp sgt i64 %0, -1
  br i1 %or.cond, label %if.end, label %if.else

if.else:                                          ; preds = %entry
  tail call void @__assert_fail(ptr noundef nonnull @.str, ptr noundef nonnull @.str.1, i32 noundef 189, ptr noundef nonnull @__PRETTY_FUNCTION__.bitmap_set_atomic) #10
  unreachable

if.end:                                           ; preds = %entry
  %1 = trunc i64 %start to i32
  %2 = and i32 %1, 63
  %conv = sub nuw nsw i32 64, %2
  %conv4 = zext nneg i32 %conv to i64
  %sub5 = sub i64 %nr, %conv4
  %cmp6 = icmp sgt i64 %sub5, 0
  br i1 %cmp6, label %if.then8, label %if.end11

if.then8:                                         ; preds = %if.end
  %3 = atomicrmw or ptr %add.ptr, i64 %shl seq_cst, align 8
  %incdec.ptr = getelementptr i8, ptr %add.ptr, i64 8
  br label %if.end11

if.end11:                                         ; preds = %if.then8, %if.end
  %mask_to_set.0 = phi i64 [ -1, %if.then8 ], [ %shl, %if.end ]
  %bits_to_set.0 = phi i32 [ 64, %if.then8 ], [ %conv, %if.end ]
  %p.0 = phi ptr [ %incdec.ptr, %if.then8 ], [ %add.ptr, %if.end ]
  %nr.addr.0 = phi i64 [ %sub5, %if.then8 ], [ %nr, %if.end ]
  %cmp13 = icmp eq i32 %bits_to_set.0, 64
  %cmp16 = icmp ugt i64 %nr.addr.0, 63
  %or.cond1 = and i1 %cmp13, %cmp16
  br i1 %or.cond1, label %while.body.preheader, label %if.end20

while.body.preheader:                             ; preds = %if.end11
  %4 = add i64 %nr.addr.0, -64
  %5 = lshr i64 %4, 3
  %6 = and i64 %5, 2305843009213693944
  %7 = add nuw nsw i64 %6, 8
  tail call void @llvm.memset.p0.i64(ptr noundef nonnull align 8 dereferenceable(1) %p.0, i8 -1, i64 %7, i1 false)
  %8 = and i64 %nr.addr.0, 63
  %scevgep = getelementptr i8, ptr %p.0, i64 %7
  br label %if.end20

if.end20:                                         ; preds = %while.body.preheader, %if.end11
  %p.1 = phi ptr [ %p.0, %if.end11 ], [ %scevgep, %while.body.preheader ]
  %nr.addr.1 = phi i64 [ %nr.addr.0, %if.end11 ], [ %8, %while.body.preheader ]
  %tobool.not = icmp eq i64 %nr.addr.1, 0
  br i1 %tobool.not, label %if.else27, label %if.then21

if.then21:                                        ; preds = %if.end20
  %sub22 = sub i64 0, %add
  %and23 = and i64 %sub22, 63
  %shr = lshr i64 -1, %and23
  %and24 = and i64 %mask_to_set.0, %shr
  %9 = atomicrmw or ptr %p.1, i64 %and24 seq_cst, align 8
  br label %if.end28

if.else27:                                        ; preds = %if.end20
  tail call void asm sideeffect "", "~{memory},~{dirflag},~{fpsr},~{flags}"() #11, !srcloc !15
  fence seq_cst
  br label %if.end28

if.end28:                                         ; preds = %if.else27, %if.then21
  ret void
}